target datalayout = "e-m:e-p270:32:32-p271:32:32-p272:64:64-i64:64-i128:128-f80:128-n8:16:32:64-S128"
target triple = "x86_64-pc-linux-gnu"

%struct.st_str_end_key = type { ptr, ptr }
%struct.re_pattern_buffer = type { ptr, ptr, ptr, i32, i32, ptr, ptr, i32, i32, i32, i32, i32, i32, i32, i32, i32, ptr, ptr, i32, ptr, i32, ptr, i32, i32, i32, i32, i32, i32, ptr, ptr, [256 x i8], i32, i32, i32, ptr }
%struct.NameEntry = type { ptr, i32, i32, i32, i32, ptr }
%struct.ParseEnv = type { i32, i32, ptr, ptr, i32, i32, i32, ptr, ptr, ptr, ptr, ptr, i32, i32, i32, i32, [8 x %struct.MemEnv], ptr, i32, i32, i32, i32, ptr, ptr, i32, i32 }
%struct.MemEnv = type { ptr, ptr }

; Function Attrs: nounwind uwtable
define dso_local i32 @onig_st_lookup_strend(ptr noundef %0, ptr noundef %1, ptr noundef %2, ptr noundef %3) #0 {
  %5 = alloca ptr, align 8
  %6 = alloca ptr, align 8
  %7 = alloca ptr, align 8
  %8 = alloca ptr, align 8
  %9 = alloca %struct.st_str_end_key, align 8
  store ptr %0, ptr %5, align 8, !tbaa !9
  store ptr %1, ptr %6, align 8, !tbaa !4
  store ptr %2, ptr %7, align 8, !tbaa !4
  store ptr %3, ptr %8, align 8, !tbaa !22
  call void @llvm.lifetime.start.p0(i64 16, ptr %9) #8
  %10 = load ptr, ptr %6, align 8, !tbaa !4
  %11 = getelementptr inbounds nuw %struct.st_str_end_key, ptr %9, i32 0, i32 0
  store ptr %10, ptr %11, align 8, !tbaa !19
  %12 = load ptr, ptr %7, align 8, !tbaa !4
  %13 = getelementptr inbounds nuw %struct.st_str_end_key, ptr %9, i32 0, i32 1
  store ptr %12, ptr %13, align 8, !tbaa !17
  %14 = load ptr, ptr %5, align 8, !tbaa !9
  %15 = ptrtoint ptr %9 to i64
  %16 = load ptr, ptr %8, align 8, !tbaa !22
  %17 = call i32 @onig_st_lookup(ptr noundef %14, i64 noundef %15, ptr noundef %16)
  call void @llvm.lifetime.end.p0(i64 16, ptr %9) #8
  ret i32 %17
}

; Function Attrs: nounwind uwtable
define dso_local void @onig_scan_env_set_error_string(ptr noundef %0, i32 noundef %1, ptr noundef %2, ptr noundef %3) #0 {
  %5 = alloca ptr, align 8
  %6 = alloca i32, align 4
  %7 = alloca ptr, align 8
  %8 = alloca ptr, align 8
  store ptr %0, ptr %5, align 8, !tbaa !9
  store i32 %1, ptr %6, align 4, !tbaa !10
  store ptr %2, ptr %7, align 8, !tbaa !4
  store ptr %3, ptr %8, align 8, !tbaa !4
  %9 = load ptr, ptr %7, align 8, !tbaa !4
  %10 = load ptr, ptr %5, align 8, !tbaa !9
  %11 = getelementptr inbounds nuw %struct.ParseEnv, ptr %10, i32 0, i32 9
  store ptr %9, ptr %11, align 8, !tbaa !168
  %12 = load ptr, ptr %8, align 8, !tbaa !4
  %13 = load ptr, ptr %5, align 8, !tbaa !9
  %14 = getelementptr inbounds nuw %struct.ParseEnv, ptr %13, i32 0, i32 10
  store ptr %12, ptr %14, align 8, !tbaa !169
  ret void
}

; Function Attrs: nounwind uwtable
define internal ptr @name_find(ptr noundef %0, ptr noundef %1, ptr noundef %2) #0 {
  %4 = alloca ptr, align 8
  %5 = alloca ptr, align 8
  %6 = alloca ptr, align 8
  %7 = alloca ptr, align 8
  %8 = alloca ptr, align 8
  store ptr %0, ptr %4, align 8, !tbaa !33
  store ptr %1, ptr %5, align 8, !tbaa !4
  store ptr %2, ptr %6, align 8, !tbaa !4
  call void @llvm.lifetime.start.p0(i64 8, ptr %7) #8
  call void @llvm.lifetime.start.p0(i64 8, ptr %8) #8
  %9 = load ptr, ptr %4, align 8, !tbaa !33
  %10 = getelementptr inbounds nuw %struct.re_pattern_buffer, ptr %9, i32 0, i32 21
  %11 = load ptr, ptr %10, align 8, !tbaa !35
  store ptr %11, ptr %8, align 8, !tbaa !37
  store ptr null, ptr %7, align 8, !tbaa !9
  %12 = load ptr, ptr %8, align 8, !tbaa !37
  %13 = icmp ne ptr %12, null
  br i1 %13, label %14, label %19

14:                                               ; preds = %3
  %15 = load ptr, ptr %8, align 8, !tbaa !37
  %16 = load ptr, ptr %5, align 8, !tbaa !4
  %17 = load ptr, ptr %6, align 8, !tbaa !4
  %18 = call i32 @onig_st_lookup_strend(ptr noundef %15, ptr noundef %16, ptr noundef %17, ptr noundef %7)
  br label %19

19:                                               ; preds = %14, %3
  %20 = load ptr, ptr %7, align 8, !tbaa !9
  call void @llvm.lifetime.end.p0(i64 8, ptr %8) #8
  call void @llvm.lifetime.end.p0(i64 8, ptr %7) #8
  ret ptr %20
}

; Function Attrs: nounwind uwtable
define internal i32 @name_to_group_numbers(ptr noundef %0, ptr noundef %1, ptr noundef %2, ptr noundef %3) #0 {
  %5 = alloca i32, align 4
  %6 = alloca ptr, align 8
  %7 = alloca ptr, align 8
  %8 = alloca ptr, align 8
  %9 = alloca ptr, align 8
  %10 = alloca ptr, align 8
  %11 = alloca ptr, align 8
  %12 = alloca i32, align 4
  store ptr %0, ptr %6, align 8, !tbaa !9
  store ptr %1, ptr %7, align 8, !tbaa !4
  store ptr %2, ptr %8, align 8, !tbaa !4
  store ptr %3, ptr %9, align 8, !tbaa !60
  call void @llvm.lifetime.start.p0(i64 8, ptr %10) #8
  call void @llvm.lifetime.start.p0(i64 8, ptr %11) #8
  %13 = load ptr, ptr %6, align 8, !tbaa !9
  %14 = getelementptr inbounds nuw %struct.ParseEnv, ptr %13, i32 0, i32 11
  %15 = load ptr, ptr %14, align 8, !tbaa !161
  store ptr %15, ptr %10, align 8, !tbaa !33
  %16 = load ptr, ptr %10, align 8, !tbaa !33
  %17 = load ptr, ptr %7, align 8, !tbaa !4
  %18 = load ptr, ptr %8, align 8, !tbaa !4
  %19 = call ptr @name_find(ptr noundef %16, ptr noundef %17, ptr noundef %18)
  store ptr %19, ptr %11, align 8, !tbaa !9
  %20 = load ptr, ptr %11, align 8, !tbaa !9
  %21 = icmp eq ptr %20, null
  br i1 %21, label %22, label %26

22:                                               ; preds = %4
  %23 = load ptr, ptr %6, align 8, !tbaa !9
  %24 = load ptr, ptr %7, align 8, !tbaa !4
  %25 = load ptr, ptr %8, align 8, !tbaa !4
  call void @onig_scan_env_set_error_string(ptr noundef %23, i32 noundef -217, ptr noundef %24, ptr noundef %25)
  store i32 -217, ptr %5, align 4
  store i32 1, ptr %12, align 4
  br label %43

26:                                               ; preds = %4
  %27 = load ptr, ptr %11, align 8, !tbaa !9
  %28 = getelementptr inbounds nuw %struct.NameEntry, ptr %27, i32 0, i32 2
  %29 = load i32, ptr %28, align 4, !tbaa !50
  switch i32 %29, label %34 [
    i32 0, label %39
    i32 1, label %30
  ]

30:                                               ; preds = %26
  %31 = load ptr, ptr %11, align 8, !tbaa !9
  %32 = getelementptr inbounds nuw %struct.NameEntry, ptr %31, i32 0, i32 4
  %33 = load ptr, ptr %9, align 8, !tbaa !60
  store ptr %32, ptr %33, align 8, !tbaa !62
  br label %39

34:                                               ; preds = %26
  %35 = load ptr, ptr %11, align 8, !tbaa !9
  %36 = getelementptr inbounds nuw %struct.NameEntry, ptr %35, i32 0, i32 5
  %37 = load ptr, ptr %36, align 8, !tbaa !51
  %38 = load ptr, ptr %9, align 8, !tbaa !60
  store ptr %37, ptr %38, align 8, !tbaa !62
  br label %39

39:                                               ; preds = %34, %30, %26
  %40 = load ptr, ptr %11, align 8, !tbaa !9
  %41 = getelementptr inbounds nuw %struct.NameEntry, ptr %40, i32 0, i32 2
  %42 = load i32, ptr %41, align 4, !tbaa !50
  store i32 %42, ptr %5, align 4
  store i32 1, ptr %12, align 4
  br label %43

43:                                               ; preds = %39, %22
  call void @llvm.lifetime.end.p0(i64 8, ptr %11) #8
  call void @llvm.lifetime.end.p0(i64 8, ptr %10) #8
  %44 = load i32, ptr %5, align 4
  ret i32 %44
}